; Function Attrs: mustprogress nounwind uwtable
define hidden noundef ptr @_ZN9CMoveNode8IdentityEP8PhaseGVN(ptr noundef nonnull readonly align 8 dereferenceable(64) %0, ptr nocapture noundef readonly %1) unnamed_addr #0 align 2 {
  %3 = getelementptr inbounds i8, ptr %0, i64 8
  %4 = load ptr, ptr %3, align 8
  %5 = getelementptr inbounds i8, ptr %4, i64 16
  %6 = load ptr, ptr %5, align 8
  %7 = getelementptr inbounds i8, ptr %4, i64 24
  %8 = load ptr, ptr %7, align 8
  %9 = icmp eq ptr %6, %8
  br i1 %9, label %66, label %10

10:                                               ; preds = %2
  %11 = getelementptr inbounds i8, ptr %4, i64 8
  %12 = load ptr, ptr %11, align 8
  %13 = getelementptr inbounds i8, ptr %1, i64 40
  %14 = load ptr, ptr %13, align 8
  %15 = getelementptr inbounds i8, ptr %12, i64 40
  %16 = load i32, ptr %15, align 8
  %17 = getelementptr inbounds i8, ptr %14, i64 16
  %18 = load ptr, ptr %17, align 8
  %19 = zext i32 %16 to i64
  %20 = getelementptr inbounds ptr, ptr %18, i64 %19
  %21 = load ptr, ptr %20, align 8
  %22 = load ptr, ptr @_ZN7TypeInt4ZEROE, align 8
  %23 = icmp eq ptr %21, %22
  br i1 %23, label %66, label %24

24:                                               ; preds = %10
  %25 = load ptr, ptr @_ZN7TypeInt3ONEE, align 8
  %26 = icmp eq ptr %21, %25
  br i1 %26, label %66, label %27

27:                                               ; preds = %24
  %28 = getelementptr inbounds i8, ptr %12, i64 44
  %29 = load i32, ptr %28, align 4
  %30 = and i32 %29, 511
  %31 = icmp eq i32 %30, 256
  br i1 %31, label %32, label %_ZN9CMoveNode11is_cmove_idEP14PhaseTransformP4NodeS3_S3_P8BoolNode.exit.thread

32:                                               ; preds = %27
  %33 = getelementptr inbounds i8, ptr %12, i64 8
  %34 = load ptr, ptr %33, align 8
  %35 = getelementptr inbounds i8, ptr %34, i64 8
  %36 = load ptr, ptr %35, align 8
  %37 = getelementptr inbounds i8, ptr %36, i64 44
  %38 = load i32, ptr %37, align 4
  %39 = and i32 %38, 255
  %40 = icmp eq i32 %39, 192
  br i1 %40, label %41, label %_ZN9CMoveNode11is_cmove_idEP14PhaseTransformP4NodeS3_S3_P8BoolNode.exit.thread

41:                                               ; preds = %32
  %42 = getelementptr inbounds i8, ptr %36, i64 8
  %43 = load ptr, ptr %42, align 8
  %44 = getelementptr inbounds i8, ptr %43, i64 8
  %45 = load ptr, ptr %44, align 8
  %46 = icmp eq ptr %45, %6
  %47 = getelementptr inbounds i8, ptr %43, i64 16
  %48 = load ptr, ptr %47, align 8
  %49 = icmp eq ptr %48, %8
  %or.cond16.i = select i1 %46, i1 %49, i1 false
  br i1 %or.cond16.i, label %52, label %._crit_edge.i

._crit_edge.i:                                    ; preds = %41
  %50 = icmp eq ptr %48, %6
  %51 = icmp eq ptr %45, %8
  %or.cond.i = and i1 %51, %50
  br i1 %or.cond.i, label %52, label %_ZN9CMoveNode11is_cmove_idEP14PhaseTransformP4NodeS3_S3_P8BoolNode.exit.thread

52:                                               ; preds = %._crit_edge.i, %41
  %53 = load ptr, ptr %36, align 8
  %54 = load ptr, ptr %53, align 8
  %55 = tail call noundef i32 %54(ptr noundef nonnull align 8 dereferenceable(52) %36) #5
  %56 = icmp eq i32 %55, 79
  br i1 %56, label %_ZN9CMoveNode11is_cmove_idEP14PhaseTransformP4NodeS3_S3_P8BoolNode.exit.thread, label %57

57:                                               ; preds = %52
  %58 = load ptr, ptr %36, align 8
  %59 = load ptr, ptr %58, align 8
  %60 = tail call noundef i32 %59(ptr noundef nonnull align 8 dereferenceable(52) %36) #5
  %61 = icmp eq i32 %60, 77
  br i1 %61, label %_ZN9CMoveNode11is_cmove_idEP14PhaseTransformP4NodeS3_S3_P8BoolNode.exit.thread, label %62

62:                                               ; preds = %57
  %63 = getelementptr inbounds i8, ptr %12, i64 52
  %64 = load i32, ptr %63, align 4
  switch i32 %64, label %_ZN9CMoveNode11is_cmove_idEP14PhaseTransformP4NodeS3_S3_P8BoolNode.exit.thread [
    i32 0, label %_ZN9CMoveNode11is_cmove_idEP14PhaseTransformP4NodeS3_S3_P8BoolNode.exit
    i32 4, label %65
  ]

65:                                               ; preds = %62
  br label %_ZN9CMoveNode11is_cmove_idEP14PhaseTransformP4NodeS3_S3_P8BoolNode.exit

_ZN9CMoveNode11is_cmove_idEP14PhaseTransformP4NodeS3_S3_P8BoolNode.exit: ; preds = %62, %65
  %.0.i = phi ptr [ %8, %65 ], [ %6, %62 ]
  %.not = icmp eq ptr %.0.i, null
  br i1 %.not, label %_ZN9CMoveNode11is_cmove_idEP14PhaseTransformP4NodeS3_S3_P8BoolNode.exit.thread, label %66

_ZN9CMoveNode11is_cmove_idEP14PhaseTransformP4NodeS3_S3_P8BoolNode.exit.thread: ; preds = %._crit_edge.i, %62, %52, %57, %32, %_ZN9CMoveNode11is_cmove_idEP14PhaseTransformP4NodeS3_S3_P8BoolNode.exit, %27
  br label %66

66:                                               ; preds = %24, %10, %2, %_ZN9CMoveNode11is_cmove_idEP14PhaseTransformP4NodeS3_S3_P8BoolNode.exit, %_ZN9CMoveNode11is_cmove_idEP14PhaseTransformP4NodeS3_S3_P8BoolNode.exit.thread
  %.0 = phi ptr [ %0, %_ZN9CMoveNode11is_cmove_idEP14PhaseTransformP4NodeS3_S3_P8BoolNode.exit.thread ], [ %.0.i, %_ZN9CMoveNode11is_cmove_idEP14PhaseTransformP4NodeS3_S3_P8BoolNode.exit ], [ %6, %2 ], [ %6, %10 ], [ %8, %24 ]
  ret ptr %.0
}